target datalayout = "e-m:e-p270:32:32-p271:32:32-p272:64:64-i64:64-i128:128-f80:128-n8:16:32:64-S128"
target triple = "x86_64-pc-linux-gnu"

%struct.git_istream = type { ptr, ptr, ptr, i64, %struct.git_zstream, i32, %union.anon }
%struct.git_zstream = type { %struct.z_stream_s, i64, i64, i64, i64, ptr, ptr }
%struct.z_stream_s = type { ptr, i32, i64, ptr, i32, i64, ptr, ptr, ptr, ptr, ptr, i32, i64, i64 }
%union.anon = type { %struct.filtered_istream }
%struct.filtered_istream = type { ptr, ptr, [16384 x i8], [16384 x i8], i32, i32, i32, i32, i32 }

@the_repository = external global ptr, align 8
@.str = private unnamed_addr constant [1 x i8] zeroinitializer, align 1

; Function Attrs: nounwind uwtable
define dso_local i32 @close_istream(ptr noundef %0) #0 {
  %2 = alloca ptr, align 8
  %3 = alloca i32, align 4
  store ptr %0, ptr %2, align 8, !tbaa !4
  call void @llvm.lifetime.start.p0(i64 4, ptr %3) #8
  %4 = load ptr, ptr %2, align 8, !tbaa !4
  %5 = getelementptr inbounds nuw %struct.git_istream, ptr %4, i32 0, i32 1
  %6 = load ptr, ptr %5, align 8, !tbaa !9
  %7 = load ptr, ptr %2, align 8, !tbaa !4
  %8 = call i32 %6(ptr noundef %7)
  store i32 %8, ptr %3, align 4, !tbaa !17
  %9 = load ptr, ptr %2, align 8, !tbaa !4
  call void @free(ptr noundef %9) #8
  %10 = load i32, ptr %3, align 4, !tbaa !17
  call void @llvm.lifetime.end.p0(i64 4, ptr %3) #8
  ret i32 %10
}

; Function Attrs: nounwind uwtable
define dso_local i64 @read_istream(ptr noundef %0, ptr noundef %1, i64 noundef %2) #0 {
  %4 = alloca ptr, align 8
  %5 = alloca ptr, align 8
  %6 = alloca i64, align 8
  store ptr %0, ptr %4, align 8, !tbaa !4
  store ptr %1, ptr %5, align 8, !tbaa !18
  store i64 %2, ptr %6, align 8, !tbaa !19
  %7 = load ptr, ptr %4, align 8, !tbaa !4
  %8 = getelementptr inbounds nuw %struct.git_istream, ptr %7, i32 0, i32 2
  %9 = load ptr, ptr %8, align 8, !tbaa !20
  %10 = load ptr, ptr %4, align 8, !tbaa !4
  %11 = load ptr, ptr %5, align 8, !tbaa !18
  %12 = load i64, ptr %6, align 8, !tbaa !19
  %13 = call i64 %9(ptr noundef %10, ptr noundef %11, i64 noundef %12)
  ret i64 %13
}

; Function Attrs: nounwind uwtable
define dso_local i32 @stream_blob_to_fd(i32 noundef %0, ptr noundef %1, ptr noundef %2, i32 noundef %3) #0 {
  %5 = alloca i32, align 4
  %6 = alloca i32, align 4
  %7 = alloca ptr, align 8
  %8 = alloca ptr, align 8
  %9 = alloca i32, align 4
  %10 = alloca ptr, align 8
  %11 = alloca i32, align 4
  %12 = alloca i64, align 8
  %13 = alloca i64, align 8
  %14 = alloca i32, align 4
  %15 = alloca i32, align 4
  %16 = alloca [16384 x i8], align 16
  %17 = alloca i64, align 8
  %18 = alloca i64, align 8
  %19 = alloca i64, align 8
  store i32 %0, ptr %6, align 4, !tbaa !17
  store ptr %1, ptr %7, align 8, !tbaa !23
  store ptr %2, ptr %8, align 8, !tbaa !27
  store i32 %3, ptr %9, align 4, !tbaa !17
  call void @llvm.lifetime.start.p0(i64 8, ptr %10) #8
  call void @llvm.lifetime.start.p0(i64 4, ptr %11) #8
  call void @llvm.lifetime.start.p0(i64 8, ptr %12) #8
  call void @llvm.lifetime.start.p0(i64 8, ptr %13) #8
  store i64 0, ptr %13, align 8, !tbaa !19
  call void @llvm.lifetime.start.p0(i64 4, ptr %14) #8
  store i32 -1, ptr %14, align 4, !tbaa !17
  %20 = load ptr, ptr @the_repository, align 8, !tbaa !21
  %21 = load ptr, ptr %7, align 8, !tbaa !23
  %22 = load ptr, ptr %8, align 8, !tbaa !27
  %23 = call ptr @open_istream(ptr noundef %20, ptr noundef %21, ptr noundef %11, ptr noundef %12, ptr noundef %22)
  store ptr %23, ptr %10, align 8, !tbaa !4
  %24 = load ptr, ptr %10, align 8, !tbaa !4
  %25 = icmp ne ptr %24, null
  br i1 %25, label %33, label %26

26:                                               ; preds = %4
  %27 = load ptr, ptr %8, align 8, !tbaa !27
  %28 = icmp ne ptr %27, null
  br i1 %28, label %29, label %31

29:                                               ; preds = %26
  %30 = load ptr, ptr %8, align 8, !tbaa !27
  call void @free_stream_filter(ptr noundef %30)
  br label %31

31:                                               ; preds = %29, %26
  %32 = load i32, ptr %14, align 4, !tbaa !17
  store i32 %32, ptr %5, align 4
  store i32 1, ptr %15, align 4
  br label %120

33:                                               ; preds = %4
  %34 = load i32, ptr %11, align 4, !tbaa !17
  %35 = icmp ne i32 %34, 3
  br i1 %35, label %36, label %37

36:                                               ; preds = %33
  br label %116

37:                                               ; preds = %33
  br label %38

38:                                               ; preds = %100, %98, %37
  call void @llvm.lifetime.start.p0(i64 16384, ptr %16) #8
  call void @llvm.lifetime.start.p0(i64 8, ptr %17) #8
  call void @llvm.lifetime.start.p0(i64 8, ptr %18) #8
  call void @llvm.lifetime.start.p0(i64 8, ptr %19) #8
  %39 = load ptr, ptr %10, align 8, !tbaa !4
  %40 = getelementptr inbounds [16384 x i8], ptr %16, i64 0, i64 0
  %41 = call i64 @read_istream(ptr noundef %39, ptr noundef %40, i64 noundef 16384)
  store i64 %41, ptr %19, align 8, !tbaa !19
  %42 = load i64, ptr %19, align 8, !tbaa !19
  %43 = icmp slt i64 %42, 0
  br i1 %43, label %44, label %45

44:                                               ; preds = %38
  store i32 2, ptr %15, align 4
  br label %98

45:                                               ; preds = %38
  %46 = load i64, ptr %19, align 8, !tbaa !19
  %47 = icmp ne i64 %46, 0
  br i1 %47, label %49, label %48

48:                                               ; preds = %45
  store i32 3, ptr %15, align 4
  br label %98

49:                                               ; preds = %45
  %50 = load i32, ptr %9, align 4, !tbaa !17
  %51 = icmp ne i32 %50, 0
  br i1 %51, label %52, label %79

52:                                               ; preds = %49
  %53 = load i64, ptr %19, align 8, !tbaa !19
  %54 = icmp eq i64 16384, %53
  br i1 %54, label %55, label %79

55:                                               ; preds = %52
  store i64 0, ptr %18, align 8, !tbaa !19
  br label %56

56:                                               ; preds = %67, %55
  %57 = load i64, ptr %18, align 8, !tbaa !19
  %58 = load i64, ptr %19, align 8, !tbaa !19
  %59 = icmp slt i64 %57, %58
  br i1 %59, label %60, label %70

60:                                               ; preds = %56
  %61 = load i64, ptr %18, align 8, !tbaa !19
  %62 = getelementptr inbounds [16384 x i8], ptr %16, i64 0, i64 %61
  %63 = load i8, ptr %62, align 1, !tbaa !69
  %64 = icmp ne i8 %63, 0
  br i1 %64, label %65, label %66

65:                                               ; preds = %60
  br label %70

66:                                               ; preds = %60
  br label %67

67:                                               ; preds = %66
  %68 = load i64, ptr %18, align 8, !tbaa !19
  %69 = add nsw i64 %68, 1
  store i64 %69, ptr %18, align 8, !tbaa !19
  br label %56, !llvm.loop !81

70:                                               ; preds = %65, %56
  %71 = load i64, ptr %19, align 8, !tbaa !19
  %72 = load i64, ptr %18, align 8, !tbaa !19
  %73 = icmp eq i64 %71, %72
  br i1 %73, label %74, label %78

74:                                               ; preds = %70
  %75 = load i64, ptr %18, align 8, !tbaa !19
  %76 = load i64, ptr %13, align 8, !tbaa !19
  %77 = add nsw i64 %76, %75
  store i64 %77, ptr %13, align 8, !tbaa !19
  store i32 4, ptr %15, align 4
  br label %98

78:                                               ; preds = %70
  br label %79

79:                                               ; preds = %78, %52, %49
  %80 = load i64, ptr %13, align 8, !tbaa !19
  %81 = icmp ne i64 %80, 0
  br i1 %81, label %82, label %88

82:                                               ; preds = %79
  %83 = load i32, ptr %6, align 4, !tbaa !17
  %84 = load i64, ptr %13, align 8, !tbaa !19
  %85 = call i64 @lseek64(i32 noundef %83, i64 noundef %84, i32 noundef 1) #8
  %86 = icmp eq i64 %85, -1
  br i1 %86, label %87, label %88

87:                                               ; preds = %82
  store i32 2, ptr %15, align 4
  br label %98

88:                                               ; preds = %82, %79
  store i64 0, ptr %13, align 8, !tbaa !19
  br label %89

89:                                               ; preds = %88
  %90 = load i32, ptr %6, align 4, !tbaa !17
  %91 = getelementptr inbounds [16384 x i8], ptr %16, i64 0, i64 0
  %92 = load i64, ptr %19, align 8, !tbaa !19
  %93 = call i64 @write_in_full(i32 noundef %90, ptr noundef %91, i64 noundef %92)
  store i64 %93, ptr %17, align 8, !tbaa !19
  %94 = load i64, ptr %17, align 8, !tbaa !19
  %95 = icmp slt i64 %94, 0
  br i1 %95, label %96, label %97

96:                                               ; preds = %89
  store i32 2, ptr %15, align 4
  br label %98

97:                                               ; preds = %89
  store i32 0, ptr %15, align 4
  br label %98

98:                                               ; preds = %96, %87, %44, %97, %74, %48
  call void @llvm.lifetime.end.p0(i64 8, ptr %19) #8
  call void @llvm.lifetime.end.p0(i64 8, ptr %18) #8
  call void @llvm.lifetime.end.p0(i64 8, ptr %17) #8
  call void @llvm.lifetime.end.p0(i64 16384, ptr %16) #8
  %99 = load i32, ptr %15, align 4
  switch i32 %99, label %120 [
    i32 0, label %100
    i32 3, label %101
    i32 4, label %38
    i32 2, label %116
  ]

100:                                              ; preds = %98
  br label %38

101:                                              ; preds = %98
  %102 = load i64, ptr %13, align 8, !tbaa !19
  %103 = icmp ne i64 %102, 0
  br i1 %103, label %104, label %115

104:                                              ; preds = %101
  %105 = load i32, ptr %6, align 4, !tbaa !17
  %106 = load i64, ptr %13, align 8, !tbaa !19
  %107 = sub nsw i64 %106, 1
  %108 = call i64 @lseek64(i32 noundef %105, i64 noundef %107, i32 noundef 1) #8
  %109 = icmp eq i64 %108, -1
  br i1 %109, label %114, label %110

110:                                              ; preds = %104
  %111 = load i32, ptr %6, align 4, !tbaa !17
  %112 = call i64 @xwrite(i32 noundef %111, ptr noundef @.str, i64 noundef 1)
  %113 = icmp ne i64 %112, 1
  br i1 %113, label %114, label %115

114:                                              ; preds = %110, %104
  br label %116

115:                                              ; preds = %110, %101
  store i32 0, ptr %14, align 4, !tbaa !17
  br label %116

116:                                              ; preds = %115, %98, %114, %36
  %117 = load ptr, ptr %10, align 8, !tbaa !4
  %118 = call i32 @close_istream(ptr noundef %117)
  %119 = load i32, ptr %14, align 4, !tbaa !17
  store i32 %119, ptr %5, align 4
  store i32 1, ptr %15, align 4
  br label %120

120:                                              ; preds = %116, %98, %31
  call void @llvm.lifetime.end.p0(i64 4, ptr %14) #8
  call void @llvm.lifetime.end.p0(i64 8, ptr %13) #8
  call void @llvm.lifetime.end.p0(i64 8, ptr %12) #8
  call void @llvm.lifetime.end.p0(i64 4, ptr %11) #8
  call void @llvm.lifetime.end.p0(i64 8, ptr %10) #8
  %121 = load i32, ptr %5, align 4
  ret i32 %121
}