; Function Attrs: nounwind uwtable
define dso_local range(i32 -1, 1) i32 @stream_blob_to_fd(i32 noundef %0, ptr noundef %1, ptr noundef %2, i32 noundef %3) local_unnamed_addr #0 {
  %5 = alloca i32, align 4
  %6 = alloca i64, align 8
  %7 = alloca [16384 x i8], align 16
  call void @llvm.lifetime.start.p0(i64 4, ptr nonnull %5) #11
  call void @llvm.lifetime.start.p0(i64 8, ptr nonnull %6) #11
  %8 = load ptr, ptr @the_repository, align 8, !tbaa !66
  %9 = call ptr @open_istream(ptr noundef %8, ptr noundef %1, ptr noundef nonnull %5, ptr noundef nonnull %6, ptr noundef %2)
  %.not = icmp eq ptr %9, null
  br i1 %.not, label %10, label %12

10:                                               ; preds = %4
  %.not40 = icmp eq ptr %2, null
  br i1 %.not40, label %53, label %11

11:                                               ; preds = %10
  call void @free_stream_filter(ptr noundef nonnull %2) #11
  br label %53

12:                                               ; preds = %4
  %13 = load i32, ptr %5, align 4, !tbaa !68
  %.not41 = icmp eq i32 %13, 3
  br i1 %.not41, label %.preheader54, label %49

.preheader54:                                     ; preds = %12
  %14 = getelementptr inbounds nuw i8, ptr %9, i64 16
  call void @llvm.lifetime.start.p0(i64 16384, ptr nonnull %7) #11
  %15 = load ptr, ptr %14, align 8, !tbaa !15
  %16 = call i64 %15(ptr noundef nonnull %9, ptr noundef nonnull %7, i64 noundef 16384) #11
  %17 = icmp slt i64 %16, 0
  br i1 %17, label %.thread47, label %.lr.ph

.lr.ph:                                           ; preds = %.preheader54
  %.not61 = icmp eq i32 %3, 0
  br i1 %.not61, label %.lr.ph.split.us.split, label %.lr.ph.split

.lr.ph.split.us.split:                            ; preds = %.lr.ph, %21
  %18 = phi i64 [ %23, %21 ], [ %16, %.lr.ph ]
  %.not42.us = icmp eq i64 %18, 0
  br i1 %.not42.us, label %.split.us.thread, label %.thread.us

.split.us.thread:                                 ; preds = %.lr.ph.split.us.split
  call void @llvm.lifetime.end.p0(i64 16384, ptr nonnull %7) #11
  br label %48

.thread.us:                                       ; preds = %.lr.ph.split.us.split
  %19 = call i64 @write_in_full(i32 noundef %0, ptr noundef nonnull %7, i64 noundef %18) #11
  %20 = icmp slt i64 %19, 0
  br i1 %20, label %.thread47, label %21

21:                                               ; preds = %.thread.us
  call void @llvm.lifetime.end.p0(i64 16384, ptr nonnull %7) #11
  call void @llvm.lifetime.start.p0(i64 16384, ptr nonnull %7) #11
  %22 = load ptr, ptr %14, align 8, !tbaa !15
  %23 = call i64 %22(ptr noundef nonnull %9, ptr noundef nonnull %7, i64 noundef 16384) #11
  %24 = icmp slt i64 %23, 0
  br i1 %24, label %.thread47, label %.lr.ph.split.us.split

.lr.ph.split:                                     ; preds = %.lr.ph, %38
  %25 = phi i64 [ %40, %38 ], [ %16, %.lr.ph ]
  %.03458 = phi i64 [ %.1, %38 ], [ 0, %.lr.ph ]
  switch i64 %25, label %.thread [
    i64 0, label %.split.us
    i64 16384, label %.preheader
  ]

.preheader:                                       ; preds = %.lr.ph.split, %28
  %.03357 = phi i64 [ %29, %28 ], [ 0, %.lr.ph.split ]
  %26 = getelementptr inbounds nuw [16384 x i8], ptr %7, i64 0, i64 %.03357
  %27 = load i8, ptr %26, align 1, !tbaa !56
  %.not43 = icmp eq i8 %27, 0
  br i1 %.not43, label %28, label %.thread

28:                                               ; preds = %.preheader
  %29 = add nuw nsw i64 %.03357, 1
  %exitcond.not = icmp eq i64 %29, 16384
  br i1 %exitcond.not, label %30, label %.preheader, !llvm.loop !69

30:                                               ; preds = %28
  %31 = add nsw i64 %.03458, 16384
  br label %38

.thread:                                          ; preds = %.preheader, %.lr.ph.split
  %.not44 = icmp eq i64 %.03458, 0
  br i1 %.not44, label %35, label %32

32:                                               ; preds = %.thread
  %33 = call i64 @lseek64(i32 noundef %0, i64 noundef %.03458, i32 noundef 1) #11
  %34 = icmp eq i64 %33, -1
  br i1 %34, label %.thread47, label %35

35:                                               ; preds = %32, %.thread
  %36 = call i64 @write_in_full(i32 noundef %0, ptr noundef nonnull %7, i64 noundef %25) #11
  %37 = icmp slt i64 %36, 0
  br i1 %37, label %.thread47, label %38

.thread47:                                        ; preds = %35, %32, %38, %.thread.us, %21, %.preheader54
  call void @llvm.lifetime.end.p0(i64 16384, ptr nonnull %7) #11
  br label %49

38:                                               ; preds = %35, %30
  %.1 = phi i64 [ %31, %30 ], [ 0, %35 ]
  call void @llvm.lifetime.end.p0(i64 16384, ptr nonnull %7) #11
  call void @llvm.lifetime.start.p0(i64 16384, ptr nonnull %7) #11
  %39 = load ptr, ptr %14, align 8, !tbaa !15
  %40 = call i64 %39(ptr noundef nonnull %9, ptr noundef nonnull %7, i64 noundef 16384) #11
  %41 = icmp slt i64 %40, 0
  br i1 %41, label %.thread47, label %.lr.ph.split

.split.us:                                        ; preds = %.lr.ph.split
  call void @llvm.lifetime.end.p0(i64 16384, ptr nonnull %7) #11
  %.not45 = icmp eq i64 %.03458, 0
  br i1 %.not45, label %48, label %42

42:                                               ; preds = %.split.us
  %43 = add nsw i64 %.03458, -1
  %44 = call i64 @lseek64(i32 noundef %0, i64 noundef %43, i32 noundef 1) #11
  %45 = icmp eq i64 %44, -1
  br i1 %45, label %49, label %46

46:                                               ; preds = %42
  %47 = call i64 @xwrite(i32 noundef %0, ptr noundef nonnull @.str, i64 noundef 1) #11
  %.not46 = icmp eq i64 %47, 1
  br i1 %.not46, label %48, label %49

48:                                               ; preds = %.split.us.thread, %46, %.split.us
  br label %49

49:                                               ; preds = %.thread47, %42, %46, %12, %48
  %.036 = phi i32 [ -1, %12 ], [ -1, %42 ], [ -1, %46 ], [ 0, %48 ], [ -1, %.thread47 ]
  %50 = getelementptr inbounds nuw i8, ptr %9, i64 8
  %51 = load ptr, ptr %50, align 8, !tbaa !4
  %52 = call i32 %51(ptr noundef nonnull %9) #11
  call void @free(ptr noundef nonnull %9) #11
  br label %53

53:                                               ; preds = %10, %11, %49
  %.0 = phi i32 [ %.036, %49 ], [ -1, %11 ], [ -1, %10 ]
  call void @llvm.lifetime.end.p0(i64 8, ptr nonnull %6) #11
  call void @llvm.lifetime.end.p0(i64 4, ptr nonnull %5) #11
  ret i32 %.0
}